; Function Attrs: mustprogress uwtable
define noundef zeroext i1 @_ZN6google8protobuf2io18StringOutputStream4NextEPPvPi(ptr nocapture noundef nonnull readonly align 8 dereferenceable(16) %this, ptr nocapture noundef writeonly %data, ptr nocapture noundef writeonly %size) unnamed_addr #5 align 2 personality ptr @__gxx_personality_v0 {
entry:
  %ref.tmp2 = alloca %"class.absl::lts_20230802::log_internal::LogMessageFatal", align 8
  %target_ = getelementptr inbounds i8, ptr %this, i64 8
  %0 = load ptr, ptr %target_, align 8
  %cmp.not = icmp eq ptr %0, null
  br i1 %cmp.not, label %cond.false, label %cleanup.done

cond.false:                                       ; preds = %entry
  call void @_ZN4absl12lts_2023080212log_internal15LogMessageFatalC1EPKciSt17basic_string_viewIcSt11char_traitsIcEE(ptr noundef nonnull align 8 dereferenceable(16) %ref.tmp2, ptr noundef nonnull @.str.1, i32 noundef 123, i64 15, ptr nonnull @.str.6) #26
  call void @_ZN4absl12lts_2023080212log_internal15LogMessageFatalD1Ev(ptr noundef nonnull align 8 dereferenceable(16) %ref.tmp2) #27
  unreachable

cleanup.done:                                     ; preds = %entry
  %call8 = tail call noundef i64 @_ZNKSt7__cxx1112basic_stringIcSt11char_traitsIcESaIcEE4sizeEv(ptr noundef nonnull align 8 dereferenceable(32) %0) #25
  %1 = load ptr, ptr %target_, align 8
  %call10 = tail call noundef i64 @_ZNKSt7__cxx1112basic_stringIcSt11char_traitsIcESaIcEE8capacityEv(ptr noundef nonnull align 8 dereferenceable(32) %1) #25
  %cmp11 = icmp ult i64 %call8, %call10
  br i1 %cmp11, label %if.then, label %if.else

if.then:                                          ; preds = %cleanup.done
  %2 = load ptr, ptr %target_, align 8
  %call13 = tail call noundef i64 @_ZNKSt7__cxx1112basic_stringIcSt11char_traitsIcESaIcEE8capacityEv(ptr noundef nonnull align 8 dereferenceable(32) %2) #25
  br label %if.end

if.else:                                          ; preds = %cleanup.done
  %mul = shl i64 %call8, 1
  br label %if.end

if.end:                                           ; preds = %if.else, %if.then
  %storemerge = phi i64 [ %mul, %if.else ], [ %call13, %if.then ]
  %add = add i64 %call8, 2147483647
  %.sroa.speculated9 = tail call i64 @llvm.umin.i64(i64 %add, i64 %storemerge)
  %3 = load ptr, ptr %target_, align 8
  %.sroa.speculated = tail call i64 @llvm.umax.i64(i64 %.sroa.speculated9, i64 16)
  tail call void @_ZNSt7__cxx1112basic_stringIcSt11char_traitsIcESaIcEE6resizeEm(ptr noundef nonnull align 8 dereferenceable(32) %3, i64 noundef %.sroa.speculated)
  %4 = load ptr, ptr %target_, align 8
  %call.i = tail call noundef nonnull align 1 dereferenceable(1) ptr @_ZNSt7__cxx1112basic_stringIcSt11char_traitsIcESaIcEEixEm(ptr noundef nonnull align 8 dereferenceable(32) %4, i64 noundef 0)
  %add.ptr = getelementptr inbounds i8, ptr %call.i, i64 %call8
  store ptr %add.ptr, ptr %data, align 8
  %5 = load ptr, ptr %target_, align 8
  %call23 = tail call noundef i64 @_ZNKSt7__cxx1112basic_stringIcSt11char_traitsIcESaIcEE4sizeEv(ptr noundef nonnull align 8 dereferenceable(32) %5) #25
  %sub = sub i64 %call23, %call8
  %conv24 = trunc i64 %sub to i32
  store i32 %conv24, ptr %size, align 4
  ret i1 true
}